
STM32f030_test.elf:     file format elf32-littlearm

Sections:
Idx Name          Size      VMA       LMA       File off  Algn
  0 .isr_vector   000000c0  08000000  08000000  00001000  2**0
                  CONTENTS, ALLOC, LOAD, READONLY, DATA
  1 .text         000005d0  080000c0  080000c0  000010c0  2**2
                  CONTENTS, ALLOC, LOAD, READONLY, CODE
  2 .rodata       00000000  08000690  08000698  00001698  2**0
                  CONTENTS, ALLOC, LOAD, DATA
  3 .ARM.extab    00000000  08000690  08000690  00001698  2**0
                  CONTENTS, READONLY
  4 .ARM          00000000  08000690  08000690  00001698  2**0
                  CONTENTS, READONLY
  5 .preinit_array 00000000  08000690  08000698  00001698  2**0
                  CONTENTS, ALLOC, LOAD, DATA
  6 .init_array   00000004  08000690  08000690  00001690  2**2
                  CONTENTS, ALLOC, LOAD, READONLY, DATA
  7 .fini_array   00000004  08000694  08000694  00001694  2**2
                  CONTENTS, ALLOC, LOAD, READONLY, DATA
  8 .data         00000000  20000000  20000000  00001698  2**0
                  CONTENTS, ALLOC, LOAD, DATA
  9 .bss          00000020  20000000  08000698  00002000  2**2
                  ALLOC
 10 ._user_heap_stack 00000600  20000020  08000698  00002020  2**0
                  ALLOC
 11 .ARM.attributes 00000028  00000000  00000000  00001698  2**0
                  CONTENTS, READONLY
 12 .debug_info   0000077d  00000000  00000000  000016c0  2**0
                  CONTENTS, READONLY, DEBUGGING, OCTETS
 13 .debug_abbrev 00000239  00000000  00000000  00001e3d  2**0
                  CONTENTS, READONLY, DEBUGGING, OCTETS
 14 .debug_aranges 00000098  00000000  00000000  00002078  2**3
                  CONTENTS, READONLY, DEBUGGING, OCTETS
 15 .debug_rnglists 0000006a  00000000  00000000  00002110  2**0
                  CONTENTS, READONLY, DEBUGGING, OCTETS
 16 .debug_macro  000082dc  00000000  00000000  0000217a  2**0
                  CONTENTS, READONLY, DEBUGGING, OCTETS
 17 .debug_line   000007e2  00000000  00000000  0000a456  2**0
                  CONTENTS, READONLY, DEBUGGING, OCTETS
 18 .debug_str    0002bafc  00000000  00000000  0000ac38  2**0
                  CONTENTS, READONLY, DEBUGGING, OCTETS
 19 .comment      00000043  00000000  00000000  00036734  2**0
                  CONTENTS, READONLY
 20 .debug_frame  0000019c  00000000  00000000  00036778  2**2
                  CONTENTS, READONLY, DEBUGGING, OCTETS
 21 .debug_line_str 00000061  00000000  00000000  00036914  2**0
                  CONTENTS, READONLY, DEBUGGING, OCTETS

Disassembly of section .text:

080000c0 <__do_global_dtors_aux>:
 80000c0:	b510      	push	{r4, lr}
 80000c2:	4c06      	ldr	r4, [pc, #24]	@ (80000dc <__do_global_dtors_aux+0x1c>)
 80000c4:	7823      	ldrb	r3, [r4, #0]
 80000c6:	2b00      	cmp	r3, #0
 80000c8:	d107      	bne.n	80000da <__do_global_dtors_aux+0x1a>
 80000ca:	4b05      	ldr	r3, [pc, #20]	@ (80000e0 <__do_global_dtors_aux+0x20>)
 80000cc:	2b00      	cmp	r3, #0
 80000ce:	d002      	beq.n	80000d6 <__do_global_dtors_aux+0x16>
 80000d0:	4804      	ldr	r0, [pc, #16]	@ (80000e4 <__do_global_dtors_aux+0x24>)
 80000d2:	e000      	b.n	80000d6 <__do_global_dtors_aux+0x16>
 80000d4:	bf00      	nop
 80000d6:	2301      	movs	r3, #1
 80000d8:	7023      	strb	r3, [r4, #0]
 80000da:	bd10      	pop	{r4, pc}
 80000dc:	20000000 	.word	0x20000000
 80000e0:	00000000 	.word	0x00000000
 80000e4:	08000678 	.word	0x08000678

080000e8 <frame_dummy>:
 80000e8:	4b04      	ldr	r3, [pc, #16]	@ (80000fc <frame_dummy+0x14>)
 80000ea:	b510      	push	{r4, lr}
 80000ec:	2b00      	cmp	r3, #0
 80000ee:	d003      	beq.n	80000f8 <frame_dummy+0x10>
 80000f0:	4903      	ldr	r1, [pc, #12]	@ (8000100 <frame_dummy+0x18>)
 80000f2:	4804      	ldr	r0, [pc, #16]	@ (8000104 <frame_dummy+0x1c>)
 80000f4:	e000      	b.n	80000f8 <frame_dummy+0x10>
 80000f6:	bf00      	nop
 80000f8:	bd10      	pop	{r4, pc}
 80000fa:	46c0      	nop			@ (mov r8, r8)
 80000fc:	00000000 	.word	0x00000000
 8000100:	20000004 	.word	0x20000004
 8000104:	08000678 	.word	0x08000678

08000108 <__udivsi3>:
 8000108:	2200      	movs	r2, #0
 800010a:	0843      	lsrs	r3, r0, #1
 800010c:	428b      	cmp	r3, r1
 800010e:	d374      	bcc.n	80001fa <__udivsi3+0xf2>
 8000110:	0903      	lsrs	r3, r0, #4
 8000112:	428b      	cmp	r3, r1
 8000114:	d35f      	bcc.n	80001d6 <__udivsi3+0xce>
 8000116:	0a03      	lsrs	r3, r0, #8
 8000118:	428b      	cmp	r3, r1
 800011a:	d344      	bcc.n	80001a6 <__udivsi3+0x9e>
 800011c:	0b03      	lsrs	r3, r0, #12
 800011e:	428b      	cmp	r3, r1
 8000120:	d328      	bcc.n	8000174 <__udivsi3+0x6c>
 8000122:	0c03      	lsrs	r3, r0, #16
 8000124:	428b      	cmp	r3, r1
 8000126:	d30d      	bcc.n	8000144 <__udivsi3+0x3c>
 8000128:	22ff      	movs	r2, #255	@ 0xff
 800012a:	0209      	lsls	r1, r1, #8
 800012c:	ba12      	rev	r2, r2
 800012e:	0c03      	lsrs	r3, r0, #16
 8000130:	428b      	cmp	r3, r1
 8000132:	d302      	bcc.n	800013a <__udivsi3+0x32>
 8000134:	1212      	asrs	r2, r2, #8
 8000136:	0209      	lsls	r1, r1, #8
 8000138:	d065      	beq.n	8000206 <__udivsi3+0xfe>
 800013a:	0b03      	lsrs	r3, r0, #12
 800013c:	428b      	cmp	r3, r1
 800013e:	d319      	bcc.n	8000174 <__udivsi3+0x6c>
 8000140:	e000      	b.n	8000144 <__udivsi3+0x3c>
 8000142:	0a09      	lsrs	r1, r1, #8
 8000144:	0bc3      	lsrs	r3, r0, #15
 8000146:	428b      	cmp	r3, r1
 8000148:	d301      	bcc.n	800014e <__udivsi3+0x46>
 800014a:	03cb      	lsls	r3, r1, #15
 800014c:	1ac0      	subs	r0, r0, r3
 800014e:	4152      	adcs	r2, r2
 8000150:	0b83      	lsrs	r3, r0, #14
 8000152:	428b      	cmp	r3, r1
 8000154:	d301      	bcc.n	800015a <__udivsi3+0x52>
 8000156:	038b      	lsls	r3, r1, #14
 8000158:	1ac0      	subs	r0, r0, r3
 800015a:	4152      	adcs	r2, r2
 800015c:	0b43      	lsrs	r3, r0, #13
 800015e:	428b      	cmp	r3, r1
 8000160:	d301      	bcc.n	8000166 <__udivsi3+0x5e>
 8000162:	034b      	lsls	r3, r1, #13
 8000164:	1ac0      	subs	r0, r0, r3
 8000166:	4152      	adcs	r2, r2
 8000168:	0b03      	lsrs	r3, r0, #12
 800016a:	428b      	cmp	r3, r1
 800016c:	d301      	bcc.n	8000172 <__udivsi3+0x6a>
 800016e:	030b      	lsls	r3, r1, #12
 8000170:	1ac0      	subs	r0, r0, r3
 8000172:	4152      	adcs	r2, r2
 8000174:	0ac3      	lsrs	r3, r0, #11
 8000176:	428b      	cmp	r3, r1
 8000178:	d301      	bcc.n	800017e <__udivsi3+0x76>
 800017a:	02cb      	lsls	r3, r1, #11
 800017c:	1ac0      	subs	r0, r0, r3
 800017e:	4152      	adcs	r2, r2
 8000180:	0a83      	lsrs	r3, r0, #10
 8000182:	428b      	cmp	r3, r1
 8000184:	d301      	bcc.n	800018a <__udivsi3+0x82>
 8000186:	028b      	lsls	r3, r1, #10
 8000188:	1ac0      	subs	r0, r0, r3
 800018a:	4152      	adcs	r2, r2
 800018c:	0a43      	lsrs	r3, r0, #9
 800018e:	428b      	cmp	r3, r1
 8000190:	d301      	bcc.n	8000196 <__udivsi3+0x8e>
 8000192:	024b      	lsls	r3, r1, #9
 8000194:	1ac0      	subs	r0, r0, r3
 8000196:	4152      	adcs	r2, r2
 8000198:	0a03      	lsrs	r3, r0, #8
 800019a:	428b      	cmp	r3, r1
 800019c:	d301      	bcc.n	80001a2 <__udivsi3+0x9a>
 800019e:	020b      	lsls	r3, r1, #8
 80001a0:	1ac0      	subs	r0, r0, r3
 80001a2:	4152      	adcs	r2, r2
 80001a4:	d2cd      	bcs.n	8000142 <__udivsi3+0x3a>
 80001a6:	09c3      	lsrs	r3, r0, #7
 80001a8:	428b      	cmp	r3, r1
 80001aa:	d301      	bcc.n	80001b0 <__udivsi3+0xa8>
 80001ac:	01cb      	lsls	r3, r1, #7
 80001ae:	1ac0      	subs	r0, r0, r3
 80001b0:	4152      	adcs	r2, r2
 80001b2:	0983      	lsrs	r3, r0, #6
 80001b4:	428b      	cmp	r3, r1
 80001b6:	d301      	bcc.n	80001bc <__udivsi3+0xb4>
 80001b8:	018b      	lsls	r3, r1, #6
 80001ba:	1ac0      	subs	r0, r0, r3
 80001bc:	4152      	adcs	r2, r2
 80001be:	0943      	lsrs	r3, r0, #5
 80001c0:	428b      	cmp	r3, r1
 80001c2:	d301      	bcc.n	80001c8 <__udivsi3+0xc0>
 80001c4:	014b      	lsls	r3, r1, #5
 80001c6:	1ac0      	subs	r0, r0, r3
 80001c8:	4152      	adcs	r2, r2
 80001ca:	0903      	lsrs	r3, r0, #4
 80001cc:	428b      	cmp	r3, r1
 80001ce:	d301      	bcc.n	80001d4 <__udivsi3+0xcc>
 80001d0:	010b      	lsls	r3, r1, #4
 80001d2:	1ac0      	subs	r0, r0, r3
 80001d4:	4152      	adcs	r2, r2
 80001d6:	08c3      	lsrs	r3, r0, #3
 80001d8:	428b      	cmp	r3, r1
 80001da:	d301      	bcc.n	80001e0 <__udivsi3+0xd8>
 80001dc:	00cb      	lsls	r3, r1, #3
 80001de:	1ac0      	subs	r0, r0, r3
 80001e0:	4152      	adcs	r2, r2
 80001e2:	0883      	lsrs	r3, r0, #2
 80001e4:	428b      	cmp	r3, r1
 80001e6:	d301      	bcc.n	80001ec <__udivsi3+0xe4>
 80001e8:	008b      	lsls	r3, r1, #2
 80001ea:	1ac0      	subs	r0, r0, r3
 80001ec:	4152      	adcs	r2, r2
 80001ee:	0843      	lsrs	r3, r0, #1
 80001f0:	428b      	cmp	r3, r1
 80001f2:	d301      	bcc.n	80001f8 <__udivsi3+0xf0>
 80001f4:	004b      	lsls	r3, r1, #1
 80001f6:	1ac0      	subs	r0, r0, r3
 80001f8:	4152      	adcs	r2, r2
 80001fa:	1a41      	subs	r1, r0, r1
 80001fc:	d200      	bcs.n	8000200 <__udivsi3+0xf8>
 80001fe:	4601      	mov	r1, r0
 8000200:	4152      	adcs	r2, r2
 8000202:	4610      	mov	r0, r2
 8000204:	4770      	bx	lr
 8000206:	e7ff      	b.n	8000208 <__udivsi3+0x100>
 8000208:	b501      	push	{r0, lr}
 800020a:	2000      	movs	r0, #0
 800020c:	f000 f806 	bl	800021c <__aeabi_idiv0>
 8000210:	bd02      	pop	{r1, pc}
 8000212:	46c0      	nop			@ (mov r8, r8)

08000214 <__aeabi_uidivmod>:
 8000214:	2900      	cmp	r1, #0
 8000216:	d0f7      	beq.n	8000208 <__udivsi3+0x100>
 8000218:	e776      	b.n	8000108 <__udivsi3>
 800021a:	4770      	bx	lr

0800021c <__aeabi_idiv0>:
 800021c:	4770      	bx	lr
 800021e:	46c0      	nop			@ (mov r8, r8)

08000220 <__NVIC_EnableIRQ>:
  \details Enables a device specific interrupt in the NVIC interrupt controller.
  \param [in]      IRQn  Device specific interrupt number.
  \note    IRQn must not be negative.
 */
__STATIC_INLINE void __NVIC_EnableIRQ(IRQn_Type IRQn)
{
 8000220:	b580      	push	{r7, lr}
 8000222:	b082      	sub	sp, #8
 8000224:	af00      	add	r7, sp, #0
 8000226:	0002      	movs	r2, r0
 8000228:	1dfb      	adds	r3, r7, #7
 800022a:	701a      	strb	r2, [r3, #0]
  if ((int32_t)(IRQn) >= 0)
 800022c:	1dfb      	adds	r3, r7, #7
 800022e:	781b      	ldrb	r3, [r3, #0]
 8000230:	2b7f      	cmp	r3, #127	@ 0x7f
 8000232:	d809      	bhi.n	8000248 <__NVIC_EnableIRQ+0x28>
  {
    __COMPILER_BARRIER();
    NVIC->ISER[0U] = (uint32_t)(1UL << (((uint32_t)IRQn) & 0x1FUL));
 8000234:	1dfb      	adds	r3, r7, #7
 8000236:	781b      	ldrb	r3, [r3, #0]
 8000238:	001a      	movs	r2, r3
 800023a:	231f      	movs	r3, #31
 800023c:	401a      	ands	r2, r3
 800023e:	4b04      	ldr	r3, [pc, #16]	@ (8000250 <__NVIC_EnableIRQ+0x30>)
 8000240:	2101      	movs	r1, #1
 8000242:	4091      	lsls	r1, r2
 8000244:	000a      	movs	r2, r1
 8000246:	601a      	str	r2, [r3, #0]
    __COMPILER_BARRIER();
  }
}
 8000248:	46c0      	nop			@ (mov r8, r8)
 800024a:	46bd      	mov	sp, r7
 800024c:	b002      	add	sp, #8
 800024e:	bd80      	pop	{r7, pc}
 8000250:	e000e100 	.word	0xe000e100

08000254 <main>:




int main(void)
{
 8000254:	b580      	push	{r7, lr}
 8000256:	b084      	sub	sp, #16
 8000258:	af00      	add	r7, sp, #0

volatile uint32_t debug_ALRMAR;
volatile uint32_t debug_TR;
  SystemClock_Config();
 800025a:	f000 f829 	bl	80002b0 <SystemClock_Config>
  GPIO_Init();
 800025e:	f000 f85b 	bl	8000318 <GPIO_Init>
  EXTI_Init();
 8000262:	f000 f86f 	bl	8000344 <EXTI_Init>
  RTC_Init();
 8000266:	f000 f8af 	bl	80003c8 <RTC_Init>
  SysTick->CTRL |= (0x01);
 800026a:	4b0d      	ldr	r3, [pc, #52]	@ (80002a0 <main+0x4c>)
 800026c:	681a      	ldr	r2, [r3, #0]
 800026e:	4b0c      	ldr	r3, [pc, #48]	@ (80002a0 <main+0x4c>)
 8000270:	2101      	movs	r1, #1
 8000272:	430a      	orrs	r2, r1
 8000274:	601a      	str	r2, [r3, #0]
  SysTick->LOAD |= (0x00FFFFFF);
 8000276:	4b0a      	ldr	r3, [pc, #40]	@ (80002a0 <main+0x4c>)
 8000278:	685a      	ldr	r2, [r3, #4]
 800027a:	4b09      	ldr	r3, [pc, #36]	@ (80002a0 <main+0x4c>)
 800027c:	4909      	ldr	r1, [pc, #36]	@ (80002a4 <main+0x50>)
 800027e:	430a      	orrs	r2, r1
 8000280:	605a      	str	r2, [r3, #4]

  uint32_t lastTimerValue = SysTick->VAL;
 8000282:	4b07      	ldr	r3, [pc, #28]	@ (80002a0 <main+0x4c>)
 8000284:	689b      	ldr	r3, [r3, #8]
 8000286:	60fb      	str	r3, [r7, #12]
  uint32_t currentTimerValue;
  period = 1000;
 8000288:	4b07      	ldr	r3, [pc, #28]	@ (80002a8 <main+0x54>)
 800028a:	22fa      	movs	r2, #250	@ 0xfa
 800028c:	0092      	lsls	r2, r2, #2
 800028e:	801a      	strh	r2, [r3, #0]
		  lastTimerValue = currentTimerValue;
		  GPIOC->ODR ^= (1 << 14);
	   	  }
	*/

	  debug_ALRMAR = RTC->ALRMAR;
 8000290:	4b06      	ldr	r3, [pc, #24]	@ (80002ac <main+0x58>)
 8000292:	69db      	ldr	r3, [r3, #28]
 8000294:	60bb      	str	r3, [r7, #8]
	  debug_TR = RTC->TR;
 8000296:	4b05      	ldr	r3, [pc, #20]	@ (80002ac <main+0x58>)
 8000298:	681b      	ldr	r3, [r3, #0]
 800029a:	607b      	str	r3, [r7, #4]
	  debug_ALRMAR = RTC->ALRMAR;
 800029c:	46c0      	nop			@ (mov r8, r8)
 800029e:	e7f7      	b.n	8000290 <main+0x3c>
 80002a0:	e000e010 	.word	0xe000e010
 80002a4:	00ffffff 	.word	0x00ffffff
 80002a8:	2000001c 	.word	0x2000001c
 80002ac:	40002800 	.word	0x40002800

080002b0 <SystemClock_Config>:

}


void SystemClock_Config(void)
{
 80002b0:	b580      	push	{r7, lr}
 80002b2:	af00      	add	r7, sp, #0
	RCC->CR |= (1);
 80002b4:	4b17      	ldr	r3, [pc, #92]	@ (8000314 <SystemClock_Config+0x64>)
 80002b6:	681a      	ldr	r2, [r3, #0]
 80002b8:	4b16      	ldr	r3, [pc, #88]	@ (8000314 <SystemClock_Config+0x64>)
 80002ba:	2101      	movs	r1, #1
 80002bc:	430a      	orrs	r2, r1
 80002be:	601a      	str	r2, [r3, #0]
	RCC->CSR |= RCC_CSR_LSION;
 80002c0:	4b14      	ldr	r3, [pc, #80]	@ (8000314 <SystemClock_Config+0x64>)
 80002c2:	6a5a      	ldr	r2, [r3, #36]	@ 0x24
 80002c4:	4b13      	ldr	r3, [pc, #76]	@ (8000314 <SystemClock_Config+0x64>)
 80002c6:	2101      	movs	r1, #1
 80002c8:	430a      	orrs	r2, r1
 80002ca:	625a      	str	r2, [r3, #36]	@ 0x24
	while (!(RCC->CSR & RCC_CSR_LSIRDY));
 80002cc:	46c0      	nop			@ (mov r8, r8)
 80002ce:	4b11      	ldr	r3, [pc, #68]	@ (8000314 <SystemClock_Config+0x64>)
 80002d0:	6a5b      	ldr	r3, [r3, #36]	@ 0x24
 80002d2:	2202      	movs	r2, #2
 80002d4:	4013      	ands	r3, r2
 80002d6:	d0fa      	beq.n	80002ce <SystemClock_Config+0x1e>
	RCC->AHBENR |= RCC_AHBENR_GPIOCEN;
 80002d8:	4b0e      	ldr	r3, [pc, #56]	@ (8000314 <SystemClock_Config+0x64>)
 80002da:	695a      	ldr	r2, [r3, #20]
 80002dc:	4b0d      	ldr	r3, [pc, #52]	@ (8000314 <SystemClock_Config+0x64>)
 80002de:	2180      	movs	r1, #128	@ 0x80
 80002e0:	0309      	lsls	r1, r1, #12
 80002e2:	430a      	orrs	r2, r1
 80002e4:	615a      	str	r2, [r3, #20]
	RCC->APB2ENR |= RCC_APB2ENR_SYSCFGEN;
 80002e6:	4b0b      	ldr	r3, [pc, #44]	@ (8000314 <SystemClock_Config+0x64>)
 80002e8:	699a      	ldr	r2, [r3, #24]
 80002ea:	4b0a      	ldr	r3, [pc, #40]	@ (8000314 <SystemClock_Config+0x64>)
 80002ec:	2101      	movs	r1, #1
 80002ee:	430a      	orrs	r2, r1
 80002f0:	619a      	str	r2, [r3, #24]
	RCC->BDCR |= RCC_BDCR_RTCSEL_LSI;
 80002f2:	4b08      	ldr	r3, [pc, #32]	@ (8000314 <SystemClock_Config+0x64>)
 80002f4:	6a1a      	ldr	r2, [r3, #32]
 80002f6:	4b07      	ldr	r3, [pc, #28]	@ (8000314 <SystemClock_Config+0x64>)
 80002f8:	2180      	movs	r1, #128	@ 0x80
 80002fa:	0089      	lsls	r1, r1, #2
 80002fc:	430a      	orrs	r2, r1
 80002fe:	621a      	str	r2, [r3, #32]
	RCC->BDCR |= RCC_BDCR_RTCEN;
 8000300:	4b04      	ldr	r3, [pc, #16]	@ (8000314 <SystemClock_Config+0x64>)
 8000302:	6a1a      	ldr	r2, [r3, #32]
 8000304:	4b03      	ldr	r3, [pc, #12]	@ (8000314 <SystemClock_Config+0x64>)
 8000306:	2180      	movs	r1, #128	@ 0x80
 8000308:	0209      	lsls	r1, r1, #8
 800030a:	430a      	orrs	r2, r1
 800030c:	621a      	str	r2, [r3, #32]

}
 800030e:	46c0      	nop			@ (mov r8, r8)
 8000310:	46bd      	mov	sp, r7
 8000312:	bd80      	pop	{r7, pc}
 8000314:	40021000 	.word	0x40021000

08000318 <GPIO_Init>:

void GPIO_Init(){
 8000318:	b580      	push	{r7, lr}
 800031a:	af00      	add	r7, sp, #0

	GPIOC->MODER |= (1 << 28);
 800031c:	4b08      	ldr	r3, [pc, #32]	@ (8000340 <GPIO_Init+0x28>)
 800031e:	681a      	ldr	r2, [r3, #0]
 8000320:	4b07      	ldr	r3, [pc, #28]	@ (8000340 <GPIO_Init+0x28>)
 8000322:	2180      	movs	r1, #128	@ 0x80
 8000324:	0549      	lsls	r1, r1, #21
 8000326:	430a      	orrs	r2, r1
 8000328:	601a      	str	r2, [r3, #0]
	GPIOC->PUPDR |= (1 << 30);
 800032a:	4b05      	ldr	r3, [pc, #20]	@ (8000340 <GPIO_Init+0x28>)
 800032c:	68da      	ldr	r2, [r3, #12]
 800032e:	4b04      	ldr	r3, [pc, #16]	@ (8000340 <GPIO_Init+0x28>)
 8000330:	2180      	movs	r1, #128	@ 0x80
 8000332:	05c9      	lsls	r1, r1, #23
 8000334:	430a      	orrs	r2, r1
 8000336:	60da      	str	r2, [r3, #12]


}
 8000338:	46c0      	nop			@ (mov r8, r8)
 800033a:	46bd      	mov	sp, r7
 800033c:	bd80      	pop	{r7, pc}
 800033e:	46c0      	nop			@ (mov r8, r8)
 8000340:	48000800 	.word	0x48000800

08000344 <EXTI_Init>:
void EXTI_Init(){
 8000344:	b580      	push	{r7, lr}
 8000346:	af00      	add	r7, sp, #0

	EXTI->IMR |= (1 << 15);
 8000348:	4b0f      	ldr	r3, [pc, #60]	@ (8000388 <EXTI_Init+0x44>)
 800034a:	681a      	ldr	r2, [r3, #0]
 800034c:	4b0e      	ldr	r3, [pc, #56]	@ (8000388 <EXTI_Init+0x44>)
 800034e:	2180      	movs	r1, #128	@ 0x80
 8000350:	0209      	lsls	r1, r1, #8
 8000352:	430a      	orrs	r2, r1
 8000354:	601a      	str	r2, [r3, #0]
	EXTI->FTSR |= (1 << 15);
 8000356:	4b0c      	ldr	r3, [pc, #48]	@ (8000388 <EXTI_Init+0x44>)
 8000358:	68da      	ldr	r2, [r3, #12]
 800035a:	4b0b      	ldr	r3, [pc, #44]	@ (8000388 <EXTI_Init+0x44>)
 800035c:	2180      	movs	r1, #128	@ 0x80
 800035e:	0209      	lsls	r1, r1, #8
 8000360:	430a      	orrs	r2, r1
 8000362:	60da      	str	r2, [r3, #12]

	SYSCFG->EXTICR[3] |= (1 << 13);
 8000364:	4b09      	ldr	r3, [pc, #36]	@ (800038c <EXTI_Init+0x48>)
 8000366:	695a      	ldr	r2, [r3, #20]
 8000368:	4b08      	ldr	r3, [pc, #32]	@ (800038c <EXTI_Init+0x48>)
 800036a:	2180      	movs	r1, #128	@ 0x80
 800036c:	0189      	lsls	r1, r1, #6
 800036e:	430a      	orrs	r2, r1
 8000370:	615a      	str	r2, [r3, #20]
	EXTI->PR = (1<<15);
 8000372:	4b05      	ldr	r3, [pc, #20]	@ (8000388 <EXTI_Init+0x44>)
 8000374:	2280      	movs	r2, #128	@ 0x80
 8000376:	0212      	lsls	r2, r2, #8
 8000378:	615a      	str	r2, [r3, #20]

	NVIC_EnableIRQ(EXTI4_15_IRQn);
 800037a:	2007      	movs	r0, #7
 800037c:	f7ff ff50 	bl	8000220 <__NVIC_EnableIRQ>

}
 8000380:	46c0      	nop			@ (mov r8, r8)
 8000382:	46bd      	mov	sp, r7
 8000384:	bd80      	pop	{r7, pc}
 8000386:	46c0      	nop			@ (mov r8, r8)
 8000388:	40010400 	.word	0x40010400
 800038c:	40010000 	.word	0x40010000

08000390 <EXTI4_15_IRQHandler>:

void EXTI4_15_IRQHandler(){
 8000390:	b580      	push	{r7, lr}
 8000392:	af00      	add	r7, sp, #0

	EXTI->PR = (1<<15);
 8000394:	4b04      	ldr	r3, [pc, #16]	@ (80003a8 <EXTI4_15_IRQHandler+0x18>)
 8000396:	2280      	movs	r2, #128	@ 0x80
 8000398:	0212      	lsls	r2, r2, #8
 800039a:	615a      	str	r2, [r3, #20]
	EXTI_4_15_CallBack();
 800039c:	f000 f806 	bl	80003ac <EXTI_4_15_CallBack>

}
 80003a0:	46c0      	nop			@ (mov r8, r8)
 80003a2:	46bd      	mov	sp, r7
 80003a4:	bd80      	pop	{r7, pc}
 80003a6:	46c0      	nop			@ (mov r8, r8)
 80003a8:	40010400 	.word	0x40010400

080003ac <EXTI_4_15_CallBack>:

void EXTI_4_15_CallBack(){
 80003ac:	b580      	push	{r7, lr}
 80003ae:	af00      	add	r7, sp, #0
	GPIOC->ODR |= (1 << 14);
 80003b0:	4b04      	ldr	r3, [pc, #16]	@ (80003c4 <EXTI_4_15_CallBack+0x18>)
 80003b2:	695a      	ldr	r2, [r3, #20]
 80003b4:	4b03      	ldr	r3, [pc, #12]	@ (80003c4 <EXTI_4_15_CallBack+0x18>)
 80003b6:	2180      	movs	r1, #128	@ 0x80
 80003b8:	01c9      	lsls	r1, r1, #7
 80003ba:	430a      	orrs	r2, r1
 80003bc:	615a      	str	r2, [r3, #20]

}
 80003be:	46c0      	nop			@ (mov r8, r8)
 80003c0:	46bd      	mov	sp, r7
 80003c2:	bd80      	pop	{r7, pc}
 80003c4:	48000800 	.word	0x48000800

080003c8 <RTC_Init>:

void RTC_Init(){
 80003c8:	b580      	push	{r7, lr}
 80003ca:	af00      	add	r7, sp, #0
	//debug_ALRMAR = RTC->ALRMAR;
	//debug_TR = RTC->TR;

	RTC->WPR = 0xCA;
 80003cc:	4b32      	ldr	r3, [pc, #200]	@ (8000498 <RTC_Init+0xd0>)
 80003ce:	22ca      	movs	r2, #202	@ 0xca
 80003d0:	625a      	str	r2, [r3, #36]	@ 0x24
	RTC->WPR = 0x53;
 80003d2:	4b31      	ldr	r3, [pc, #196]	@ (8000498 <RTC_Init+0xd0>)
 80003d4:	2253      	movs	r2, #83	@ 0x53
 80003d6:	625a      	str	r2, [r3, #36]	@ 0x24

	RTC->ISR |= RTC_ISR_ALRAF;
 80003d8:	4b2f      	ldr	r3, [pc, #188]	@ (8000498 <RTC_Init+0xd0>)
 80003da:	68da      	ldr	r2, [r3, #12]
 80003dc:	4b2e      	ldr	r3, [pc, #184]	@ (8000498 <RTC_Init+0xd0>)
 80003de:	2180      	movs	r1, #128	@ 0x80
 80003e0:	0049      	lsls	r1, r1, #1
 80003e2:	430a      	orrs	r2, r1
 80003e4:	60da      	str	r2, [r3, #12]

	RTC->CR &= ~RTC_CR_ALRAE;
 80003e6:	4b2c      	ldr	r3, [pc, #176]	@ (8000498 <RTC_Init+0xd0>)
 80003e8:	689a      	ldr	r2, [r3, #8]
 80003ea:	4b2b      	ldr	r3, [pc, #172]	@ (8000498 <RTC_Init+0xd0>)
 80003ec:	492b      	ldr	r1, [pc, #172]	@ (800049c <RTC_Init+0xd4>)
 80003ee:	400a      	ands	r2, r1
 80003f0:	609a      	str	r2, [r3, #8]
	while(!(RTC->ISR & RTC_ISR_ALRAWF));
 80003f2:	46c0      	nop			@ (mov r8, r8)
 80003f4:	4b28      	ldr	r3, [pc, #160]	@ (8000498 <RTC_Init+0xd0>)
 80003f6:	68db      	ldr	r3, [r3, #12]
 80003f8:	2201      	movs	r2, #1
 80003fa:	4013      	ands	r3, r2
 80003fc:	d0fa      	beq.n	80003f4 <RTC_Init+0x2c>

	//debug_ALRMAR = RTC->ALRMAR;
	//debug_TR = RTC->TR;

	RTC->PRER = (0x7F << RTC_PRER_PREDIV_A_Pos);
 80003fe:	4b26      	ldr	r3, [pc, #152]	@ (8000498 <RTC_Init+0xd0>)
 8000400:	22fe      	movs	r2, #254	@ 0xfe
 8000402:	03d2      	lsls	r2, r2, #15
 8000404:	611a      	str	r2, [r3, #16]
	RTC->PRER |= (0xFF << RTC_PRER_PREDIV_S_Pos);
 8000406:	4b24      	ldr	r3, [pc, #144]	@ (8000498 <RTC_Init+0xd0>)
 8000408:	691a      	ldr	r2, [r3, #16]
 800040a:	4b23      	ldr	r3, [pc, #140]	@ (8000498 <RTC_Init+0xd0>)
 800040c:	21ff      	movs	r1, #255	@ 0xff
 800040e:	430a      	orrs	r2, r1
 8000410:	611a      	str	r2, [r3, #16]

	RTC->ISR &= ~RTC_ISR_RSF;
 8000412:	4b21      	ldr	r3, [pc, #132]	@ (8000498 <RTC_Init+0xd0>)
 8000414:	68da      	ldr	r2, [r3, #12]
 8000416:	4b20      	ldr	r3, [pc, #128]	@ (8000498 <RTC_Init+0xd0>)
 8000418:	2120      	movs	r1, #32
 800041a:	438a      	bics	r2, r1
 800041c:	60da      	str	r2, [r3, #12]
	while (!(RTC->ISR & RTC_ISR_RSF));
 800041e:	46c0      	nop			@ (mov r8, r8)
 8000420:	4b1d      	ldr	r3, [pc, #116]	@ (8000498 <RTC_Init+0xd0>)
 8000422:	68db      	ldr	r3, [r3, #12]
 8000424:	2220      	movs	r2, #32
 8000426:	4013      	ands	r3, r2
 8000428:	d0fa      	beq.n	8000420 <RTC_Init+0x58>


	RTC->ALRMAR |= RTC_ALRMAR_MSK4_Msk|RTC_ALRMAR_MSK3_Msk|RTC_ALRMAR_MSK2_Msk;
 800042a:	4b1b      	ldr	r3, [pc, #108]	@ (8000498 <RTC_Init+0xd0>)
 800042c:	69da      	ldr	r2, [r3, #28]
 800042e:	4b1a      	ldr	r3, [pc, #104]	@ (8000498 <RTC_Init+0xd0>)
 8000430:	491b      	ldr	r1, [pc, #108]	@ (80004a0 <RTC_Init+0xd8>)
 8000432:	430a      	orrs	r2, r1
 8000434:	61da      	str	r2, [r3, #28]

	RTC->ALRMAR &= ~(RTC_ALRMAR_ST_Msk|RTC_ALRMAR_SU_Msk);
 8000436:	4b18      	ldr	r3, [pc, #96]	@ (8000498 <RTC_Init+0xd0>)
 8000438:	69da      	ldr	r2, [r3, #28]
 800043a:	4b17      	ldr	r3, [pc, #92]	@ (8000498 <RTC_Init+0xd0>)
 800043c:	217f      	movs	r1, #127	@ 0x7f
 800043e:	438a      	bics	r2, r1
 8000440:	61da      	str	r2, [r3, #28]
	RTC->ALRMAR |= new_bcd_time(1);
 8000442:	2001      	movs	r0, #1
 8000444:	f000 f874 	bl	8000530 <new_bcd_time>
 8000448:	0003      	movs	r3, r0
 800044a:	0019      	movs	r1, r3
 800044c:	4b12      	ldr	r3, [pc, #72]	@ (8000498 <RTC_Init+0xd0>)
 800044e:	69da      	ldr	r2, [r3, #28]
 8000450:	4b11      	ldr	r3, [pc, #68]	@ (8000498 <RTC_Init+0xd0>)
 8000452:	430a      	orrs	r2, r1
 8000454:	61da      	str	r2, [r3, #28]




	RTC->ALRMASSR |= (8 << RTC_ALRMASSR_MASKSS_Pos);
 8000456:	4b10      	ldr	r3, [pc, #64]	@ (8000498 <RTC_Init+0xd0>)
 8000458:	6c5a      	ldr	r2, [r3, #68]	@ 0x44
 800045a:	4b0f      	ldr	r3, [pc, #60]	@ (8000498 <RTC_Init+0xd0>)
 800045c:	2180      	movs	r1, #128	@ 0x80
 800045e:	0509      	lsls	r1, r1, #20
 8000460:	430a      	orrs	r2, r1
 8000462:	645a      	str	r2, [r3, #68]	@ 0x44

	RTC->ALRMASSR = (RTC->ALRMASSR & RTC_ALRMASSR_MASKSS_Msk) | (RTC->SSR & RTC_ALRMASSR_SS_Msk);
 8000464:	4b0c      	ldr	r3, [pc, #48]	@ (8000498 <RTC_Init+0xd0>)
 8000466:	6c5a      	ldr	r2, [r3, #68]	@ 0x44
 8000468:	23f0      	movs	r3, #240	@ 0xf0
 800046a:	051b      	lsls	r3, r3, #20
 800046c:	401a      	ands	r2, r3
 800046e:	0011      	movs	r1, r2
 8000470:	4b09      	ldr	r3, [pc, #36]	@ (8000498 <RTC_Init+0xd0>)
 8000472:	6a9b      	ldr	r3, [r3, #40]	@ 0x28
 8000474:	045b      	lsls	r3, r3, #17
 8000476:	0c5a      	lsrs	r2, r3, #17
 8000478:	4b07      	ldr	r3, [pc, #28]	@ (8000498 <RTC_Init+0xd0>)
 800047a:	430a      	orrs	r2, r1
 800047c:	645a      	str	r2, [r3, #68]	@ 0x44





	RTC->CR |= RTC_CR_ALRAE;
 800047e:	4b06      	ldr	r3, [pc, #24]	@ (8000498 <RTC_Init+0xd0>)
 8000480:	689a      	ldr	r2, [r3, #8]
 8000482:	4b05      	ldr	r3, [pc, #20]	@ (8000498 <RTC_Init+0xd0>)
 8000484:	2180      	movs	r1, #128	@ 0x80
 8000486:	0049      	lsls	r1, r1, #1
 8000488:	430a      	orrs	r2, r1
 800048a:	609a      	str	r2, [r3, #8]

	NVIC_EnableIRQ(RTC_IRQn);
 800048c:	2002      	movs	r0, #2
 800048e:	f7ff fec7 	bl	8000220 <__NVIC_EnableIRQ>
}
 8000492:	46c0      	nop			@ (mov r8, r8)
 8000494:	46bd      	mov	sp, r7
 8000496:	bd80      	pop	{r7, pc}
 8000498:	40002800 	.word	0x40002800
 800049c:	fffffeff 	.word	0xfffffeff
 80004a0:	80808000 	.word	0x80808000

080004a4 <RTC_IRQHandler>:

void RTC_IRQHandler(){
 80004a4:	b580      	push	{r7, lr}
 80004a6:	af00      	add	r7, sp, #0
	RTC->ISR |= RTC_ISR_ALRAF;
 80004a8:	4b05      	ldr	r3, [pc, #20]	@ (80004c0 <RTC_IRQHandler+0x1c>)
 80004aa:	68da      	ldr	r2, [r3, #12]
 80004ac:	4b04      	ldr	r3, [pc, #16]	@ (80004c0 <RTC_IRQHandler+0x1c>)
 80004ae:	2180      	movs	r1, #128	@ 0x80
 80004b0:	0049      	lsls	r1, r1, #1
 80004b2:	430a      	orrs	r2, r1
 80004b4:	60da      	str	r2, [r3, #12]

	RTC_CallBack();
 80004b6:	f000 f805 	bl	80004c4 <RTC_CallBack>


}
 80004ba:	46c0      	nop			@ (mov r8, r8)
 80004bc:	46bd      	mov	sp, r7
 80004be:	bd80      	pop	{r7, pc}
 80004c0:	40002800 	.word	0x40002800

080004c4 <RTC_CallBack>:
void RTC_CallBack(){
 80004c4:	b580      	push	{r7, lr}
 80004c6:	af00      	add	r7, sp, #0

	RTC->CR &= ~RTC_CR_ALRAE;
 80004c8:	4b16      	ldr	r3, [pc, #88]	@ (8000524 <RTC_CallBack+0x60>)
 80004ca:	689a      	ldr	r2, [r3, #8]
 80004cc:	4b15      	ldr	r3, [pc, #84]	@ (8000524 <RTC_CallBack+0x60>)
 80004ce:	4916      	ldr	r1, [pc, #88]	@ (8000528 <RTC_CallBack+0x64>)
 80004d0:	400a      	ands	r2, r1
 80004d2:	609a      	str	r2, [r3, #8]
	while(!(RTC->ISR & RTC_ISR_ALRAWF));
 80004d4:	46c0      	nop			@ (mov r8, r8)
 80004d6:	4b13      	ldr	r3, [pc, #76]	@ (8000524 <RTC_CallBack+0x60>)
 80004d8:	68db      	ldr	r3, [r3, #12]
 80004da:	2201      	movs	r2, #1
 80004dc:	4013      	ands	r3, r2
 80004de:	d0fa      	beq.n	80004d6 <RTC_CallBack+0x12>

	RTC->ALRMAR &= ~(RTC_ALRMAR_ST_Msk|RTC_ALRMAR_SU_Msk);
 80004e0:	4b10      	ldr	r3, [pc, #64]	@ (8000524 <RTC_CallBack+0x60>)
 80004e2:	69da      	ldr	r2, [r3, #28]
 80004e4:	4b0f      	ldr	r3, [pc, #60]	@ (8000524 <RTC_CallBack+0x60>)
 80004e6:	217f      	movs	r1, #127	@ 0x7f
 80004e8:	438a      	bics	r2, r1
 80004ea:	61da      	str	r2, [r3, #28]
	RTC->ALRMAR |= new_bcd_time(1);
 80004ec:	2001      	movs	r0, #1
 80004ee:	f000 f81f 	bl	8000530 <new_bcd_time>
 80004f2:	0003      	movs	r3, r0
 80004f4:	0019      	movs	r1, r3
 80004f6:	4b0b      	ldr	r3, [pc, #44]	@ (8000524 <RTC_CallBack+0x60>)
 80004f8:	69da      	ldr	r2, [r3, #28]
 80004fa:	4b0a      	ldr	r3, [pc, #40]	@ (8000524 <RTC_CallBack+0x60>)
 80004fc:	430a      	orrs	r2, r1
 80004fe:	61da      	str	r2, [r3, #28]
	GPIOC->ODR ^= GPIO_ODR_14;
 8000500:	4b0a      	ldr	r3, [pc, #40]	@ (800052c <RTC_CallBack+0x68>)
 8000502:	695a      	ldr	r2, [r3, #20]
 8000504:	4b09      	ldr	r3, [pc, #36]	@ (800052c <RTC_CallBack+0x68>)
 8000506:	2180      	movs	r1, #128	@ 0x80
 8000508:	01c9      	lsls	r1, r1, #7
 800050a:	404a      	eors	r2, r1
 800050c:	615a      	str	r2, [r3, #20]
	RTC->CR |= RTC_CR_ALRAE;
 800050e:	4b05      	ldr	r3, [pc, #20]	@ (8000524 <RTC_CallBack+0x60>)
 8000510:	689a      	ldr	r2, [r3, #8]
 8000512:	4b04      	ldr	r3, [pc, #16]	@ (8000524 <RTC_CallBack+0x60>)
 8000514:	2180      	movs	r1, #128	@ 0x80
 8000516:	0049      	lsls	r1, r1, #1
 8000518:	430a      	orrs	r2, r1
 800051a:	609a      	str	r2, [r3, #8]

}
 800051c:	46c0      	nop			@ (mov r8, r8)
 800051e:	46bd      	mov	sp, r7
 8000520:	bd80      	pop	{r7, pc}
 8000522:	46c0      	nop			@ (mov r8, r8)
 8000524:	40002800 	.word	0x40002800
 8000528:	fffffeff 	.word	0xfffffeff
 800052c:	48000800 	.word	0x48000800

08000530 <new_bcd_time>:


uint8_t new_bcd_time(uint8_t delay){
 8000530:	b590      	push	{r4, r7, lr}
 8000532:	b083      	sub	sp, #12
 8000534:	af00      	add	r7, sp, #0
 8000536:	0002      	movs	r2, r0
 8000538:	1dfb      	adds	r3, r7, #7
 800053a:	701a      	strb	r2, [r3, #0]
	bcd = RTC->TR&(RTC_TR_ST_Msk|RTC_TR_SU_Msk);
 800053c:	4b24      	ldr	r3, [pc, #144]	@ (80005d0 <new_bcd_time+0xa0>)
 800053e:	681b      	ldr	r3, [r3, #0]
 8000540:	b2db      	uxtb	r3, r3
 8000542:	227f      	movs	r2, #127	@ 0x7f
 8000544:	4013      	ands	r3, r2
 8000546:	b2da      	uxtb	r2, r3
 8000548:	4b22      	ldr	r3, [pc, #136]	@ (80005d4 <new_bcd_time+0xa4>)
 800054a:	701a      	strb	r2, [r3, #0]
	seconds = (bcd >> 4)*10 + (bcd & 0xF);
 800054c:	4b21      	ldr	r3, [pc, #132]	@ (80005d4 <new_bcd_time+0xa4>)
 800054e:	781b      	ldrb	r3, [r3, #0]
 8000550:	b2db      	uxtb	r3, r3
 8000552:	091b      	lsrs	r3, r3, #4
 8000554:	b2db      	uxtb	r3, r3
 8000556:	1c1a      	adds	r2, r3, #0
 8000558:	0092      	lsls	r2, r2, #2
 800055a:	18d3      	adds	r3, r2, r3
 800055c:	18db      	adds	r3, r3, r3
 800055e:	b2da      	uxtb	r2, r3
 8000560:	4b1c      	ldr	r3, [pc, #112]	@ (80005d4 <new_bcd_time+0xa4>)
 8000562:	781b      	ldrb	r3, [r3, #0]
 8000564:	b2db      	uxtb	r3, r3
 8000566:	210f      	movs	r1, #15
 8000568:	400b      	ands	r3, r1
 800056a:	b2db      	uxtb	r3, r3
 800056c:	18d3      	adds	r3, r2, r3
 800056e:	b2da      	uxtb	r2, r3
 8000570:	4b19      	ldr	r3, [pc, #100]	@ (80005d8 <new_bcd_time+0xa8>)
 8000572:	701a      	strb	r2, [r3, #0]
	seconds += delay;
 8000574:	4b18      	ldr	r3, [pc, #96]	@ (80005d8 <new_bcd_time+0xa8>)
 8000576:	781b      	ldrb	r3, [r3, #0]
 8000578:	b2da      	uxtb	r2, r3
 800057a:	1dfb      	adds	r3, r7, #7
 800057c:	781b      	ldrb	r3, [r3, #0]
 800057e:	18d3      	adds	r3, r2, r3
 8000580:	b2da      	uxtb	r2, r3
 8000582:	4b15      	ldr	r3, [pc, #84]	@ (80005d8 <new_bcd_time+0xa8>)
 8000584:	701a      	strb	r2, [r3, #0]
	if(seconds==60){
 8000586:	4b14      	ldr	r3, [pc, #80]	@ (80005d8 <new_bcd_time+0xa8>)
 8000588:	781b      	ldrb	r3, [r3, #0]
 800058a:	b2db      	uxtb	r3, r3
 800058c:	2b3c      	cmp	r3, #60	@ 0x3c
 800058e:	d102      	bne.n	8000596 <new_bcd_time+0x66>
		seconds=0;
 8000590:	4b11      	ldr	r3, [pc, #68]	@ (80005d8 <new_bcd_time+0xa8>)
 8000592:	2200      	movs	r2, #0
 8000594:	701a      	strb	r2, [r3, #0]
	}
	return ((seconds/10) << 4)|(seconds % 10);
 8000596:	4b10      	ldr	r3, [pc, #64]	@ (80005d8 <new_bcd_time+0xa8>)
 8000598:	781b      	ldrb	r3, [r3, #0]
 800059a:	b2db      	uxtb	r3, r3
 800059c:	210a      	movs	r1, #10
 800059e:	0018      	movs	r0, r3
 80005a0:	f7ff fdb2 	bl	8000108 <__udivsi3>
 80005a4:	0003      	movs	r3, r0
 80005a6:	b2db      	uxtb	r3, r3
 80005a8:	b25b      	sxtb	r3, r3
 80005aa:	011b      	lsls	r3, r3, #4
 80005ac:	b25c      	sxtb	r4, r3
 80005ae:	4b0a      	ldr	r3, [pc, #40]	@ (80005d8 <new_bcd_time+0xa8>)
 80005b0:	781b      	ldrb	r3, [r3, #0]
 80005b2:	b2db      	uxtb	r3, r3
 80005b4:	210a      	movs	r1, #10
 80005b6:	0018      	movs	r0, r3
 80005b8:	f7ff fe2c 	bl	8000214 <__aeabi_uidivmod>
 80005bc:	000b      	movs	r3, r1
 80005be:	b2db      	uxtb	r3, r3
 80005c0:	b25b      	sxtb	r3, r3
 80005c2:	4323      	orrs	r3, r4
 80005c4:	b25b      	sxtb	r3, r3
 80005c6:	b2db      	uxtb	r3, r3
}
 80005c8:	0018      	movs	r0, r3
 80005ca:	46bd      	mov	sp, r7
 80005cc:	b003      	add	sp, #12
 80005ce:	bd90      	pop	{r4, r7, pc}
 80005d0:	40002800 	.word	0x40002800
 80005d4:	2000001e 	.word	0x2000001e
 80005d8:	2000001f 	.word	0x2000001f

080005dc <Reset_Handler>:

  .section .text.Reset_Handler
  .weak Reset_Handler
  .type Reset_Handler, %function
Reset_Handler:
  ldr   r0, =_estack
 80005dc:	480d      	ldr	r0, [pc, #52]	@ (8000614 <LoopForever+0x2>)
  mov   sp, r0          /* set stack pointer */
 80005de:	4685      	mov	sp, r0
/* Call the clock system initialization function.*/
  bl  SystemInit
 80005e0:	e000      	b.n	80005e4 <Reset_Handler+0x8>
 80005e2:	bf00      	nop

/* Copy the data segment initializers from flash to SRAM */
  ldr r0, =_sdata
 80005e4:	480c      	ldr	r0, [pc, #48]	@ (8000618 <LoopForever+0x6>)
  ldr r1, =_edata
 80005e6:	490d      	ldr	r1, [pc, #52]	@ (800061c <LoopForever+0xa>)
  ldr r2, =_sidata
 80005e8:	4a0d      	ldr	r2, [pc, #52]	@ (8000620 <LoopForever+0xe>)
  movs r3, #0
 80005ea:	2300      	movs	r3, #0
  b LoopCopyDataInit
 80005ec:	e002      	b.n	80005f4 <LoopCopyDataInit>

080005ee <CopyDataInit>:

CopyDataInit:
  ldr r4, [r2, r3]
 80005ee:	58d4      	ldr	r4, [r2, r3]
  str r4, [r0, r3]
 80005f0:	50c4      	str	r4, [r0, r3]
  adds r3, r3, #4
 80005f2:	3304      	adds	r3, #4

080005f4 <LoopCopyDataInit>:

LoopCopyDataInit:
  adds r4, r0, r3
 80005f4:	18c4      	adds	r4, r0, r3
  cmp r4, r1
 80005f6:	428c      	cmp	r4, r1
  bcc CopyDataInit
 80005f8:	d3f9      	bcc.n	80005ee <CopyDataInit>

/* Zero fill the bss segment. */
  ldr r2, =_sbss
 80005fa:	4a0a      	ldr	r2, [pc, #40]	@ (8000624 <LoopForever+0x12>)
  ldr r4, =_ebss
 80005fc:	4c0a      	ldr	r4, [pc, #40]	@ (8000628 <LoopForever+0x16>)
  movs r3, #0
 80005fe:	2300      	movs	r3, #0
  b LoopFillZerobss
 8000600:	e001      	b.n	8000606 <LoopFillZerobss>

08000602 <FillZerobss>:

FillZerobss:
  str  r3, [r2]
 8000602:	6013      	str	r3, [r2, #0]
  adds r2, r2, #4
 8000604:	3204      	adds	r2, #4

08000606 <LoopFillZerobss>:

LoopFillZerobss:
  cmp r2, r4
 8000606:	42a2      	cmp	r2, r4
  bcc FillZerobss
 8000608:	d3fb      	bcc.n	8000602 <FillZerobss>


/* Call static constructors */
  bl __libc_init_array
 800060a:	f000 f811 	bl	8000630 <__libc_init_array>
/* Call the application's entry point.*/

  bl main
 800060e:	f7ff fe21 	bl	8000254 <main>

08000612 <LoopForever>:

LoopForever:
  b LoopForever
 8000612:	e7fe      	b.n	8000612 <LoopForever>
  ldr   r0, =_estack
 8000614:	20001000 	.word	0x20001000
  ldr r0, =_sdata
 8000618:	20000000 	.word	0x20000000
  ldr r1, =_edata
 800061c:	20000000 	.word	0x20000000
  ldr r2, =_sidata
 8000620:	08000698 	.word	0x08000698
  ldr r2, =_sbss
 8000624:	20000000 	.word	0x20000000
  ldr r4, =_ebss
 8000628:	20000020 	.word	0x20000020

0800062c <ADC_IRQHandler>:
 * @retval : None
*/
  .section .text.Default_Handler,"ax",%progbits
Default_Handler:
Infinite_Loop:
  b Infinite_Loop
 800062c:	e7fe      	b.n	800062c <ADC_IRQHandler>
	...

08000630 <__libc_init_array>:
 8000630:	b570      	push	{r4, r5, r6, lr}
 8000632:	2600      	movs	r6, #0
 8000634:	4c0c      	ldr	r4, [pc, #48]	@ (8000668 <__libc_init_array+0x38>)
 8000636:	4d0d      	ldr	r5, [pc, #52]	@ (800066c <__libc_init_array+0x3c>)
 8000638:	1b64      	subs	r4, r4, r5
 800063a:	10a4      	asrs	r4, r4, #2
 800063c:	42a6      	cmp	r6, r4
 800063e:	d109      	bne.n	8000654 <__libc_init_array+0x24>
 8000640:	2600      	movs	r6, #0
 8000642:	f000 f819 	bl	8000678 <_init>
 8000646:	4c0a      	ldr	r4, [pc, #40]	@ (8000670 <__libc_init_array+0x40>)
 8000648:	4d0a      	ldr	r5, [pc, #40]	@ (8000674 <__libc_init_array+0x44>)
 800064a:	1b64      	subs	r4, r4, r5
 800064c:	10a4      	asrs	r4, r4, #2
 800064e:	42a6      	cmp	r6, r4
 8000650:	d105      	bne.n	800065e <__libc_init_array+0x2e>
 8000652:	bd70      	pop	{r4, r5, r6, pc}
 8000654:	00b3      	lsls	r3, r6, #2
 8000656:	58eb      	ldr	r3, [r5, r3]
 8000658:	4798      	blx	r3
 800065a:	3601      	adds	r6, #1
 800065c:	e7ee      	b.n	800063c <__libc_init_array+0xc>
 800065e:	00b3      	lsls	r3, r6, #2
 8000660:	58eb      	ldr	r3, [r5, r3]
 8000662:	4798      	blx	r3
 8000664:	3601      	adds	r6, #1
 8000666:	e7f2      	b.n	800064e <__libc_init_array+0x1e>
 8000668:	08000690 	.word	0x08000690
 800066c:	08000690 	.word	0x08000690
 8000670:	08000694 	.word	0x08000694
 8000674:	08000690 	.word	0x08000690

08000678 <_init>:
 8000678:	b5f8      	push	{r3, r4, r5, r6, r7, lr}
 800067a:	46c0      	nop			@ (mov r8, r8)
 800067c:	bcf8      	pop	{r3, r4, r5, r6, r7}
 800067e:	bc08      	pop	{r3}
 8000680:	469e      	mov	lr, r3
 8000682:	4770      	bx	lr

08000684 <_fini>:
 8000684:	b5f8      	push	{r3, r4, r5, r6, r7, lr}
 8000686:	46c0      	nop			@ (mov r8, r8)
 8000688:	bcf8      	pop	{r3, r4, r5, r6, r7}
 800068a:	bc08      	pop	{r3}
 800068c:	469e      	mov	lr, r3
 800068e:	4770      	bx	lr
